ccopy_reg
_reconstructor
p0
(cgoogle.oauth2.credentials
Credentials
p1
c__builtin__
object
p2
Ntp3
Rp4
(dp5
S'_token_uri'
p6
Vhttps://oauth2.googleapis.com/token
p7
sS'_scopes'
p8
(lp9
S'https://www.googleapis.com/auth/spreadsheets.readonly'
p10
asS'_id_token'
p11
NsS'token'
p12
Vya29.Glz1BuQ9NkylI7y-QGjqOx2ntBXxSeEgpNiTZEA6KBm0Zd9evhdboA0s4dcJfokhAZHGUMcEygK-optoZHURdp1Ia1OBXAbfMFfIkeheT6r5UiRGXFcl52IMZXXm2A
p13
sS'_refresh_token'
p14
V1/t72xEgeBM3cTqQRawkYOHcHGXWisWLMDi_W8wuwdauU
p15
sS'_client_secret'
p16
V9RFMxpYEyLnEA-cUoHL8_zeR
p17
sS'_client_id'
p18
V144936257719-a0g7l6vb6g73glolnlq132sthmoijetp.apps.googleusercontent.com
p19
sS'expiry'
p20
cdatetime
datetime
p21
(S'\x07\xe3\x04\x18\x00\x07"\n\xbe\x00'
p22
tp23
Rp24
sb.